target datalayout = "e-m:e-p270:32:32-p271:32:32-p272:64:64-i64:64-i128:128-f80:128-n8:16:32:64-S128"
target triple = "x86_64-pc-linux-gnu"

%"class.clang::SourceLocation" = type { i32 }
%"class.clang::FileID" = type { i32 }
%"class.llvm::StringRef" = type { ptr, i64 }
%"class.llvm::SmallVectorBase" = type { ptr, i32, i32 }
%"class.clang::FullSourceLoc" = type { %"class.clang::SourceLocation", ptr }
%"class.clang::SourceManager" = type { %"class.llvm::RefCountedBase", ptr, ptr, %"class.llvm::BumpPtrAllocatorImpl", %"class.llvm::DenseMap", i8, i8, i8, %"class.std::unique_ptr", %"class.std::vector", %"class.llvm::SmallVector.8", %"class.llvm::PagedVector", %"class.llvm::SmallVector.18", i32, i32, %"class.llvm::BitVector", %"class.llvm::BitVector", ptr, %"class.clang::FileID", %"class.std::unique_ptr.28", %"class.clang::FileID", ptr, i32, i32, %"class.clang::FileID", %"class.clang::FileID", i32, i32, %"class.llvm::DenseMap.36", %"class.llvm::DenseMap.39", %"class.clang::InBeforeInTUCacheEntry", %"class.std::unique_ptr.42", %"class.std::unique_ptr.50", %"class.std::unique_ptr.58", %"class.llvm::DenseMap.66", %"class.llvm::SmallVector.69" }
%"class.llvm::RefCountedBase" = type { i32 }
%"class.llvm::BumpPtrAllocatorImpl" = type { ptr, ptr, %"class.llvm::SmallVector", %"class.llvm::SmallVector.1", i64, i64 }
%"class.llvm::SmallVector" = type { %"class.llvm::SmallVectorImpl", %"struct.llvm::SmallVectorStorage" }
%"class.llvm::SmallVectorImpl" = type { %"class.llvm::SmallVectorTemplateBase" }
%"class.llvm::SmallVectorTemplateBase" = type { %"class.llvm::SmallVectorTemplateCommon" }
%"class.llvm::SmallVectorTemplateCommon" = type { %"class.llvm::SmallVectorBase" }
%"struct.llvm::SmallVectorStorage" = type { [32 x i8] }
%"class.llvm::SmallVector.1" = type { %"class.llvm::SmallVectorImpl.2" }
%"class.llvm::SmallVectorImpl.2" = type { %"class.llvm::SmallVectorTemplateBase.3" }
%"class.llvm::SmallVectorTemplateBase.3" = type { %"class.llvm::SmallVectorTemplateCommon.4" }
%"class.llvm::SmallVectorTemplateCommon.4" = type { %"class.llvm::SmallVectorBase" }
%"class.llvm::DenseMap" = type <{ ptr, i32, i32, i32, [4 x i8] }>
%"class.std::unique_ptr" = type { %"struct.std::__uniq_ptr_data" }
%"struct.std::__uniq_ptr_data" = type { %"class.std::__uniq_ptr_impl" }
%"class.std::__uniq_ptr_impl" = type { %"class.std::tuple" }
%"class.std::tuple" = type { %"struct.std::_Tuple_impl" }
%"struct.std::_Tuple_impl" = type { %"struct.std::_Head_base.7" }
%"struct.std::_Head_base.7" = type { ptr }
%"class.std::vector" = type { %"struct.std::_Vector_base" }
%"struct.std::_Vector_base" = type { %"struct.std::_Vector_base<clang::SrcMgr::ContentCache *, std::allocator<clang::SrcMgr::ContentCache *>>::_Vector_impl" }
%"struct.std::_Vector_base<clang::SrcMgr::ContentCache *, std::allocator<clang::SrcMgr::ContentCache *>>::_Vector_impl" = type { %"struct.std::_Vector_base<clang::SrcMgr::ContentCache *, std::allocator<clang::SrcMgr::ContentCache *>>::_Vector_impl_data" }
%"struct.std::_Vector_base<clang::SrcMgr::ContentCache *, std::allocator<clang::SrcMgr::ContentCache *>>::_Vector_impl_data" = type { ptr, ptr, ptr }
%"class.llvm::SmallVector.8" = type { %"class.llvm::SmallVectorImpl.9" }
%"class.llvm::SmallVectorImpl.9" = type { %"class.llvm::SmallVectorTemplateBase.10" }
%"class.llvm::SmallVectorTemplateBase.10" = type { %"class.llvm::SmallVectorTemplateCommon.11" }
%"class.llvm::SmallVectorTemplateCommon.11" = type { %"class.llvm::SmallVectorBase" }
%"class.llvm::PagedVector" = type { i64, %"class.llvm::SmallVector.13", %"class.llvm::PointerIntPair" }
%"class.llvm::SmallVector.13" = type { %"class.llvm::SmallVectorImpl.14" }
%"class.llvm::SmallVectorImpl.14" = type { %"class.llvm::SmallVectorTemplateBase.15" }
%"class.llvm::SmallVectorTemplateBase.15" = type { %"class.llvm::SmallVectorTemplateCommon.16" }
%"class.llvm::SmallVectorTemplateCommon.16" = type { %"class.llvm::SmallVectorBase" }
%"class.llvm::PointerIntPair" = type { %"struct.llvm::detail::PunnedPointer" }
%"struct.llvm::detail::PunnedPointer" = type { [8 x i8] }
%"class.llvm::SmallVector.18" = type { %"class.llvm::SmallVectorImpl.19" }
%"class.llvm::SmallVectorImpl.19" = type { %"class.llvm::SmallVectorTemplateBase.20" }
%"class.llvm::SmallVectorTemplateBase.20" = type { %"class.llvm::SmallVectorTemplateCommon.21" }
%"class.llvm::SmallVectorTemplateCommon.21" = type { %"class.llvm::SmallVectorBase" }
%"class.llvm::BitVector" = type <{ %"class.llvm::SmallVector.23", i32, [4 x i8] }>
%"class.llvm::SmallVector.23" = type { %"class.llvm::SmallVectorImpl.24", %"struct.llvm::SmallVectorStorage.27" }
%"class.llvm::SmallVectorImpl.24" = type { %"class.llvm::SmallVectorTemplateBase.25" }
%"class.llvm::SmallVectorTemplateBase.25" = type { %"class.llvm::SmallVectorTemplateCommon.26" }
%"class.llvm::SmallVectorTemplateCommon.26" = type { %"class.llvm::SmallVectorBase" }
%"struct.llvm::SmallVectorStorage.27" = type { [48 x i8] }
%"class.std::unique_ptr.28" = type { %"struct.std::__uniq_ptr_data.29" }
%"struct.std::__uniq_ptr_data.29" = type { %"class.std::__uniq_ptr_impl.30" }
%"class.std::__uniq_ptr_impl.30" = type { %"class.std::tuple.31" }
%"class.std::tuple.31" = type { %"struct.std::_Tuple_impl.32" }
%"struct.std::_Tuple_impl.32" = type { %"struct.std::_Head_base.35" }
%"struct.std::_Head_base.35" = type { ptr }
%"class.llvm::DenseMap.36" = type <{ ptr, i32, i32, i32, [4 x i8] }>
%"class.llvm::DenseMap.39" = type <{ ptr, i32, i32, i32, [4 x i8] }>
%"class.clang::InBeforeInTUCacheEntry" = type { %"class.clang::FileID", %"class.clang::FileID", i8, %"class.clang::FileID", i32, i32 }
%"class.std::unique_ptr.42" = type { %"struct.std::__uniq_ptr_data.43" }
%"struct.std::__uniq_ptr_data.43" = type { %"class.std::__uniq_ptr_impl.44" }
%"class.std::__uniq_ptr_impl.44" = type { %"class.std::tuple.45" }
%"class.std::tuple.45" = type { %"struct.std::_Tuple_impl.46" }
%"struct.std::_Tuple_impl.46" = type { %"struct.std::_Head_base.49" }
%"struct.std::_Head_base.49" = type { ptr }
%"class.std::unique_ptr.50" = type { %"struct.std::__uniq_ptr_data.51" }
%"struct.std::__uniq_ptr_data.51" = type { %"class.std::__uniq_ptr_impl.52" }
%"class.std::__uniq_ptr_impl.52" = type { %"class.std::tuple.53" }
%"class.std::tuple.53" = type { %"struct.std::_Tuple_impl.54" }
%"struct.std::_Tuple_impl.54" = type { %"struct.std::_Head_base.57" }
%"struct.std::_Head_base.57" = type { ptr }
%"class.std::unique_ptr.58" = type { %"struct.std::__uniq_ptr_data.59" }
%"struct.std::__uniq_ptr_data.59" = type { %"class.std::__uniq_ptr_impl.60" }
%"class.std::__uniq_ptr_impl.60" = type { %"class.std::tuple.61" }
%"class.std::tuple.61" = type { %"struct.std::_Tuple_impl.62" }
%"struct.std::_Tuple_impl.62" = type { %"struct.std::_Head_base.65" }
%"struct.std::_Head_base.65" = type { ptr }
%"class.llvm::DenseMap.66" = type <{ ptr, i32, i32, i32, [4 x i8] }>
%"class.llvm::SmallVector.69" = type { %"class.llvm::SmallVectorImpl.70", %"struct.llvm::SmallVectorStorage.73" }
%"class.llvm::SmallVectorImpl.70" = type { %"class.llvm::SmallVectorTemplateBase.71" }
%"class.llvm::SmallVectorTemplateBase.71" = type { %"class.llvm::SmallVectorTemplateCommon.72" }
%"class.llvm::SmallVectorTemplateCommon.72" = type { %"class.llvm::SmallVectorBase" }
%"struct.llvm::SmallVectorStorage.73" = type { [96 x i8] }
%"class.clang::SrcMgr::SLocEntry" = type { i32, [4 x i8], %union.anon.86 }
%union.anon.86 = type { %"class.clang::SrcMgr::FileInfo" }
%"class.clang::SrcMgr::FileInfo" = type { %"class.clang::SourceLocation", i32, %"class.llvm::PointerIntPair.87" }
%"class.llvm::PointerIntPair.87" = type { %"struct.llvm::detail::PunnedPointer.88" }
%"struct.llvm::detail::PunnedPointer.88" = type { [8 x i8] }

; Function Attrs: mustprogress nounwind uwtable
define linkonce_odr hidden noundef ptr @_ZN4llvm25SmallVectorTemplateCommonIN5clang6SrcMgr9SLocEntryEvE5beginEv(ptr noundef nonnull align 8 dereferenceable(16) %0) #0 comdat align 2 {
  %2 = alloca ptr, align 8
  store ptr %0, ptr %2, align 8
  %3 = load ptr, ptr %2, align 8
  %4 = getelementptr inbounds nuw %"class.llvm::SmallVectorBase", ptr %3, i32 0, i32 0
  %5 = load ptr, ptr %4, align 8
  ret ptr %5
}

; Function Attrs: mustprogress nounwind uwtable
define linkonce_odr hidden noundef nonnull align 8 dereferenceable(24) ptr @_ZN4llvm25SmallVectorTemplateCommonIN5clang6SrcMgr9SLocEntryEvEixEm(ptr noundef nonnull align 8 dereferenceable(16) %0, i64 noundef %1) #0 comdat align 2 {
  %3 = alloca ptr, align 8
  %4 = alloca i64, align 8
  store ptr %0, ptr %3, align 8
  store i64 %1, ptr %4, align 8
  %5 = load ptr, ptr %3, align 8
  %6 = call noundef ptr @_ZN4llvm25SmallVectorTemplateCommonIN5clang6SrcMgr9SLocEntryEvE5beginEv(ptr noundef nonnull align 8 dereferenceable(16) %5)
  %7 = load i64, ptr %4, align 8
  %8 = getelementptr inbounds %"class.clang::SrcMgr::SLocEntry", ptr %6, i64 %7
  ret ptr %8
}

; Function Attrs: mustprogress nounwind uwtable
define linkonce_odr hidden noundef nonnull align 8 dereferenceable(24) ptr @_ZN5clang13SourceManager12getSLocEntryENS_6FileIDEPb(ptr noundef nonnull align 8 dereferenceable(696) %0, i32 %1, ptr noundef %2) #0 comdat align 2 {
  %4 = alloca ptr, align 8
  %5 = alloca %"class.clang::FileID", align 4
  %6 = alloca ptr, align 8
  %7 = alloca ptr, align 8
  %8 = getelementptr inbounds nuw %"class.clang::FileID", ptr %5, i32 0, i32 0
  store i32 %1, ptr %8, align 4
  store ptr %0, ptr %6, align 8
  store ptr %2, ptr %7, align 8
  %9 = load ptr, ptr %6, align 8
  %10 = getelementptr inbounds nuw %"class.clang::FileID", ptr %5, i32 0, i32 0
  %11 = load i32, ptr %10, align 4
  %12 = icmp eq i32 %11, 0
  br i1 %12, label %17, label %13

13:                                               ; preds = %3
  %14 = getelementptr inbounds nuw %"class.clang::FileID", ptr %5, i32 0, i32 0
  %15 = load i32, ptr %14, align 4
  %16 = icmp eq i32 %15, -1
  br i1 %16, label %17, label %25

17:                                               ; preds = %13, %3
  %18 = load ptr, ptr %7, align 8
  %19 = icmp ne ptr %18, null
  br i1 %19, label %20, label %22

20:                                               ; preds = %17
  %21 = load ptr, ptr %7, align 8
  store i8 1, ptr %21, align 1
  br label %22

22:                                               ; preds = %20, %17
  %23 = getelementptr inbounds nuw %"class.clang::SourceManager", ptr %9, i32 0, i32 10
  %24 = call noundef nonnull align 8 dereferenceable(24) ptr @_ZN4llvm25SmallVectorTemplateCommonIN5clang6SrcMgr9SLocEntryEvEixEm(ptr noundef nonnull align 8 dereferenceable(16) %23, i64 noundef 0)
  store ptr %24, ptr %4, align 8
  br label %30

25:                                               ; preds = %13
  %26 = getelementptr inbounds nuw %"class.clang::FileID", ptr %5, i32 0, i32 0
  %27 = load i32, ptr %26, align 4
  %28 = load ptr, ptr %7, align 8
  %29 = call noundef nonnull align 8 dereferenceable(24) ptr @_ZN5clang13SourceManager16getSLocEntryByIDEiPb(ptr noundef nonnull align 8 dereferenceable(696) %9, i32 noundef %27, ptr noundef %28)
  store ptr %29, ptr %4, align 8
  br label %30

30:                                               ; preds = %25, %22
  %31 = load ptr, ptr %4, align 8
  ret ptr %31
}

; Function Attrs: mustprogress nounwind uwtable
define linkonce_odr hidden noundef nonnull align 8 dereferenceable(24) ptr @_ZNK5clang13SourceManager16getSLocEntryByIDEiPb(ptr noundef nonnull align 8 dereferenceable(696) %0, i32 noundef %1, ptr noundef %2) #0 comdat align 2 {
  %4 = alloca ptr, align 8
  %5 = alloca i32, align 4
  %6 = alloca ptr, align 8
  store ptr %0, ptr %4, align 8
  store i32 %1, ptr %5, align 4
  store ptr %2, ptr %6, align 8
  %7 = load ptr, ptr %4, align 8
  %8 = load i32, ptr %5, align 4
  %9 = load ptr, ptr %6, align 8
  %10 = call noundef nonnull align 8 dereferenceable(24) ptr @_ZN5clang13SourceManager16getSLocEntryByIDEiPb(ptr noundef nonnull align 8 dereferenceable(696) %7, i32 noundef %8, ptr noundef %9)
  ret ptr %10
}

; Function Attrs: mustprogress nounwind uwtable
define linkonce_odr hidden noundef i32 @_ZNK5clang6SrcMgr9SLocEntry9getOffsetEv(ptr noundef nonnull align 8 dereferenceable(24) %0) #0 comdat align 2 {
  %2 = alloca ptr, align 8
  store ptr %0, ptr %2, align 8
  %3 = load ptr, ptr %2, align 8
  %4 = load i32, ptr %3, align 8
  %5 = and i32 %4, 2147483647
  ret i32 %5
}

; Function Attrs: mustprogress nounwind uwtable
define linkonce_odr hidden noundef nonnull align 8 dereferenceable(24) ptr @_ZNK5clang13SourceManager12getSLocEntryENS_6FileIDEPb(ptr noundef nonnull align 8 dereferenceable(696) %0, i32 %1, ptr noundef %2) #0 comdat align 2 {
  %4 = alloca %"class.clang::FileID", align 4
  %5 = alloca ptr, align 8
  %6 = alloca ptr, align 8
  %7 = alloca %"class.clang::FileID", align 4
  %8 = getelementptr inbounds nuw %"class.clang::FileID", ptr %4, i32 0, i32 0
  store i32 %1, ptr %8, align 4
  store ptr %0, ptr %5, align 8
  store ptr %2, ptr %6, align 8
  %9 = load ptr, ptr %5, align 8
  call void @llvm.memcpy.p0.p0.i64(ptr align 4 %7, ptr align 4 %4, i64 4, i1 false)
  %10 = load ptr, ptr %6, align 8
  %11 = getelementptr inbounds nuw %"class.clang::FileID", ptr %7, i32 0, i32 0
  %12 = load i32, ptr %11, align 4
  %13 = call noundef nonnull align 8 dereferenceable(24) ptr @_ZN5clang13SourceManager12getSLocEntryENS_6FileIDEPb(ptr noundef nonnull align 8 dereferenceable(696) %9, i32 %12, ptr noundef %10)
  ret ptr %13
}

; Function Attrs: mustprogress nounwind uwtable
define linkonce_odr hidden noundef zeroext i1 @_ZNK5clang13SourceManager16isOffsetInFileIDENS_6FileIDEj(ptr noundef nonnull align 8 dereferenceable(696) %0, i32 %1, i32 noundef %2) #0 comdat align 2 {
  %4 = alloca i1, align 1
  %5 = alloca %"class.clang::FileID", align 4
  %6 = alloca ptr, align 8
  %7 = alloca i32, align 4
  %8 = alloca ptr, align 8
  %9 = alloca %"class.clang::FileID", align 4
  %10 = getelementptr inbounds nuw %"class.clang::FileID", ptr %5, i32 0, i32 0
  store i32 %1, ptr %10, align 4
  store ptr %0, ptr %6, align 8
  store i32 %2, ptr %7, align 4
  %11 = load ptr, ptr %6, align 8
  call void @llvm.memcpy.p0.p0.i64(ptr align 4 %9, ptr align 4 %5, i64 4, i1 false)
  %12 = getelementptr inbounds nuw %"class.clang::FileID", ptr %9, i32 0, i32 0
  %13 = load i32, ptr %12, align 4
  %14 = call noundef nonnull align 8 dereferenceable(24) ptr @_ZNK5clang13SourceManager12getSLocEntryENS_6FileIDEPb(ptr noundef nonnull align 8 dereferenceable(696) %11, i32 %13, ptr noundef null)
  store ptr %14, ptr %8, align 8
  %15 = load i32, ptr %7, align 4
  %16 = load ptr, ptr %8, align 8
  %17 = call noundef i32 @_ZNK5clang6SrcMgr9SLocEntry9getOffsetEv(ptr noundef nonnull align 8 dereferenceable(24) %16)
  %18 = icmp ult i32 %15, %17
  br i1 %18, label %19, label %20

19:                                               ; preds = %3
  store i1 false, ptr %4, align 1
  br label %46

20:                                               ; preds = %3
  %21 = getelementptr inbounds nuw %"class.clang::FileID", ptr %5, i32 0, i32 0
  %22 = load i32, ptr %21, align 4
  %23 = icmp eq i32 %22, -2
  br i1 %23, label %24, label %25

24:                                               ; preds = %20
  store i1 true, ptr %4, align 1
  br label %46

25:                                               ; preds = %20
  %26 = getelementptr inbounds nuw %"class.clang::FileID", ptr %5, i32 0, i32 0
  %27 = load i32, ptr %26, align 4
  %28 = add nsw i32 %27, 1
  %29 = getelementptr inbounds nuw %"class.clang::SourceManager", ptr %11, i32 0, i32 10
  %30 = call noundef i64 @_ZNK4llvm15SmallVectorBaseIjE4sizeEv(ptr noundef nonnull align 8 dereferenceable(16) %29)
  %31 = trunc i64 %30 to i32
  %32 = icmp eq i32 %28, %31
  br i1 %32, label %33, label %38

33:                                               ; preds = %25
  %34 = load i32, ptr %7, align 4
  %35 = getelementptr inbounds nuw %"class.clang::SourceManager", ptr %11, i32 0, i32 13
  %36 = load i32, ptr %35, align 8
  %37 = icmp ult i32 %34, %36
  store i1 %37, ptr %4, align 1
  br label %46

38:                                               ; preds = %25
  %39 = load i32, ptr %7, align 4
  %40 = getelementptr inbounds nuw %"class.clang::FileID", ptr %5, i32 0, i32 0
  %41 = load i32, ptr %40, align 4
  %42 = add nsw i32 %41, 1
  %43 = call noundef nonnull align 8 dereferenceable(24) ptr @_ZNK5clang13SourceManager16getSLocEntryByIDEiPb(ptr noundef nonnull align 8 dereferenceable(696) %11, i32 noundef %42, ptr noundef null)
  %44 = call noundef i32 @_ZNK5clang6SrcMgr9SLocEntry9getOffsetEv(ptr noundef nonnull align 8 dereferenceable(24) %43)
  %45 = icmp ult i32 %39, %44
  store i1 %45, ptr %4, align 1
  br label %46

46:                                               ; preds = %38, %33, %24, %19
  %47 = load i1, ptr %4, align 1
  ret i1 %47
}

; Function Attrs: mustprogress nounwind uwtable
define linkonce_odr hidden i32 @_ZNK5clang13SourceManager9getFileIDEj(ptr noundef nonnull align 8 dereferenceable(696) %0, i32 noundef %1) #0 comdat align 2 {
  %3 = alloca %"class.clang::FileID", align 4
  %4 = alloca ptr, align 8
  %5 = alloca i32, align 4
  %6 = alloca %"class.clang::FileID", align 4
  store ptr %0, ptr %4, align 8
  store i32 %1, ptr %5, align 4
  %7 = load ptr, ptr %4, align 8
  %8 = getelementptr inbounds nuw %"class.clang::SourceManager", ptr %7, i32 0, i32 18
  call void @llvm.memcpy.p0.p0.i64(ptr align 4 %6, ptr align 8 %8, i64 4, i1 false)
  %9 = load i32, ptr %5, align 4
  %10 = getelementptr inbounds nuw %"class.clang::FileID", ptr %6, i32 0, i32 0
  %11 = load i32, ptr %10, align 4
  %12 = call noundef zeroext i1 @_ZNK5clang13SourceManager16isOffsetInFileIDENS_6FileIDEj(ptr noundef nonnull align 8 dereferenceable(696) %7, i32 %11, i32 noundef %9)
  br i1 %12, label %13, label %15

13:                                               ; preds = %2
  %14 = getelementptr inbounds nuw %"class.clang::SourceManager", ptr %7, i32 0, i32 18
  call void @llvm.memcpy.p0.p0.i64(ptr align 4 %3, ptr align 8 %14, i64 4, i1 false)
  br label %19

15:                                               ; preds = %2
  %16 = load i32, ptr %5, align 4
  %17 = call i32 @_ZNK5clang13SourceManager13getFileIDSlowEj(ptr noundef nonnull align 8 dereferenceable(696) %7, i32 noundef %16)
  %18 = getelementptr inbounds nuw %"class.clang::FileID", ptr %3, i32 0, i32 0
  store i32 %17, ptr %18, align 4
  br label %19

19:                                               ; preds = %15, %13
  %20 = getelementptr inbounds nuw %"class.clang::FileID", ptr %3, i32 0, i32 0
  %21 = load i32, ptr %20, align 4
  ret i32 %21
}

; Function Attrs: mustprogress nounwind uwtable
define linkonce_odr hidden noundef i32 @_ZNK5clang14SourceLocation9getOffsetEv(ptr noundef nonnull align 4 dereferenceable(4) %0) #0 comdat align 2 {
  %2 = alloca ptr, align 8
  store ptr %0, ptr %2, align 8
  %3 = load ptr, ptr %2, align 8
  %4 = getelementptr inbounds nuw %"class.clang::SourceLocation", ptr %3, i32 0, i32 0
  %5 = load i32, ptr %4, align 4
  %6 = and i32 %5, 2147483647
  ret i32 %6
}

; Function Attrs: mustprogress nounwind uwtable
define linkonce_odr hidden i32 @_ZNK5clang13SourceManager9getFileIDENS_14SourceLocationE(ptr noundef nonnull align 8 dereferenceable(696) %0, i32 %1) #0 comdat align 2 {
  %3 = alloca %"class.clang::FileID", align 4
  %4 = alloca %"class.clang::SourceLocation", align 4
  %5 = alloca ptr, align 8
  %6 = getelementptr inbounds nuw %"class.clang::SourceLocation", ptr %4, i32 0, i32 0
  store i32 %1, ptr %6, align 4
  store ptr %0, ptr %5, align 8
  %7 = load ptr, ptr %5, align 8
  %8 = call noundef i32 @_ZNK5clang14SourceLocation9getOffsetEv(ptr noundef nonnull align 4 dereferenceable(4) %4)
  %9 = call i32 @_ZNK5clang13SourceManager9getFileIDEj(ptr noundef nonnull align 8 dereferenceable(696) %7, i32 noundef %8)
  %10 = getelementptr inbounds nuw %"class.clang::FileID", ptr %3, i32 0, i32 0
  store i32 %9, ptr %10, align 4
  %11 = getelementptr inbounds nuw %"class.clang::FileID", ptr %3, i32 0, i32 0
  %12 = load i32, ptr %11, align 4
  ret i32 %12
}

; Function Attrs: mustprogress nounwind uwtable
define dso_local { ptr, i64 } @_ZNK5clang13FullSourceLoc13getBufferDataEPb(ptr noundef nonnull align 8 dereferenceable(16) %0, ptr noundef %1) #0 align 2 {
  %3 = alloca %"class.llvm::StringRef", align 8
  %4 = alloca ptr, align 8
  %5 = alloca ptr, align 8
  %6 = alloca %"class.clang::FileID", align 4
  %7 = alloca %"class.clang::SourceLocation", align 4
  store ptr %0, ptr %4, align 8
  store ptr %1, ptr %5, align 8
  %8 = load ptr, ptr %4, align 8
  %9 = getelementptr inbounds nuw %"class.clang::FullSourceLoc", ptr %8, i32 0, i32 1
  %10 = load ptr, ptr %9, align 8
  %11 = getelementptr inbounds nuw %"class.clang::FullSourceLoc", ptr %8, i32 0, i32 1
  %12 = load ptr, ptr %11, align 8
  call void @llvm.memcpy.p0.p0.i64(ptr align 4 %7, ptr align 8 %8, i64 4, i1 false)
  %13 = getelementptr inbounds nuw %"class.clang::SourceLocation", ptr %7, i32 0, i32 0
  %14 = load i32, ptr %13, align 4
  %15 = call i32 @_ZNK5clang13SourceManager9getFileIDENS_14SourceLocationE(ptr noundef nonnull align 8 dereferenceable(696) %12, i32 %14)
  %16 = getelementptr inbounds nuw %"class.clang::FileID", ptr %6, i32 0, i32 0
  store i32 %15, ptr %16, align 4
  %17 = load ptr, ptr %5, align 8
  %18 = getelementptr inbounds nuw %"class.clang::FileID", ptr %6, i32 0, i32 0
  %19 = load i32, ptr %18, align 4
  %20 = call { ptr, i64 } @_ZNK5clang13SourceManager13getBufferDataENS_6FileIDEPb(ptr noundef nonnull align 8 dereferenceable(696) %10, i32 %19, ptr noundef %17)
  %21 = getelementptr inbounds nuw { ptr, i64 }, ptr %3, i32 0, i32 0
  %22 = extractvalue { ptr, i64 } %20, 0
  store ptr %22, ptr %21, align 8
  %23 = getelementptr inbounds nuw { ptr, i64 }, ptr %3, i32 0, i32 1
  %24 = extractvalue { ptr, i64 } %20, 1
  store i64 %24, ptr %23, align 8
  %25 = load { ptr, i64 }, ptr %3, align 8
  ret { ptr, i64 } %25
}