; Function Attrs: mustprogress nounwind uwtable
define dso_local { ptr, i64 } @_ZNK5clang13FullSourceLoc13getBufferDataEPb(ptr nocapture noundef nonnull readonly align 8 dereferenceable(16) %0, ptr noundef %1) local_unnamed_addr #0 align 2 {
  %3 = getelementptr inbounds nuw i8, ptr %0, i64 8
  %4 = load ptr, ptr %3, align 8
  %.sroa.0.0.copyload = load i32, ptr %0, align 8
  %5 = and i32 %.sroa.0.0.copyload, 2147483647
  %6 = getelementptr inbounds nuw i8, ptr %4, i64 408
  %.sroa.0.0.copyload.i.i = load i32, ptr %6, align 8
  %7 = add i32 %.sroa.0.0.copyload.i.i, 1
  %or.cond.i.i.i.i.i = icmp ult i32 %7, 2
  br i1 %or.cond.i.i.i.i.i, label %8, label %11

8:                                                ; preds = %2
  %9 = getelementptr inbounds nuw i8, ptr %4, i64 184
  %10 = load ptr, ptr %9, align 8
  br label %_ZNK5clang13SourceManager12getSLocEntryENS_6FileIDEPb.exit.i.i.i

11:                                               ; preds = %2
  %12 = tail call noundef nonnull align 8 dereferenceable(24) ptr @_ZN5clang13SourceManager16getSLocEntryByIDEiPb(ptr noundef nonnull align 8 dereferenceable(696) %4, i32 noundef %.sroa.0.0.copyload.i.i, ptr noundef null)
  br label %_ZNK5clang13SourceManager12getSLocEntryENS_6FileIDEPb.exit.i.i.i

_ZNK5clang13SourceManager12getSLocEntryENS_6FileIDEPb.exit.i.i.i: ; preds = %11, %8
  %.0.i.i.i.i.i = phi ptr [ %10, %8 ], [ %12, %11 ]
  %13 = load i32, ptr %.0.i.i.i.i.i, align 8
  %14 = and i32 %13, 2147483647
  %15 = icmp ult i32 %5, %14
  br i1 %15, label %_ZNK5clang13SourceManager16isOffsetInFileIDENS_6FileIDEj.exit.thread4.i.i, label %16

16:                                               ; preds = %_ZNK5clang13SourceManager12getSLocEntryENS_6FileIDEPb.exit.i.i.i
  %17 = icmp eq i32 %.sroa.0.0.copyload.i.i, -2
  br i1 %17, label %_ZNK5clang13SourceManager16isOffsetInFileIDENS_6FileIDEj.exit.thread.i.i, label %18

18:                                               ; preds = %16
  %19 = getelementptr inbounds nuw i8, ptr %4, i64 184
  %20 = tail call noundef i64 @_ZNK4llvm15SmallVectorBaseIjE4sizeEv(ptr noundef nonnull align 8 dereferenceable(16) %19) #10
  %21 = trunc i64 %20 to i32
  %22 = icmp eq i32 %7, %21
  br i1 %22, label %23, label %_ZNK5clang13SourceManager16isOffsetInFileIDENS_6FileIDEj.exit.i.i

23:                                               ; preds = %18
  %24 = getelementptr inbounds nuw i8, ptr %4, i64 248
  %25 = load i32, ptr %24, align 8
  %26 = icmp ult i32 %5, %25
  br i1 %26, label %_ZNK5clang13SourceManager16isOffsetInFileIDENS_6FileIDEj.exit.thread.i.i, label %_ZNK5clang13SourceManager16isOffsetInFileIDENS_6FileIDEj.exit.thread4.i.i

_ZNK5clang13SourceManager16isOffsetInFileIDENS_6FileIDEj.exit.i.i: ; preds = %18
  %27 = tail call noundef nonnull align 8 dereferenceable(24) ptr @_ZN5clang13SourceManager16getSLocEntryByIDEiPb(ptr noundef nonnull align 8 dereferenceable(696) %4, i32 noundef %7, ptr noundef null)
  %28 = load i32, ptr %27, align 8
  %29 = and i32 %28, 2147483647
  %30 = icmp ult i32 %5, %29
  br i1 %30, label %_ZNK5clang13SourceManager16isOffsetInFileIDENS_6FileIDEj.exit.thread.i.i, label %_ZNK5clang13SourceManager16isOffsetInFileIDENS_6FileIDEj.exit.thread4.i.i

_ZNK5clang13SourceManager16isOffsetInFileIDENS_6FileIDEj.exit.thread.i.i: ; preds = %_ZNK5clang13SourceManager16isOffsetInFileIDENS_6FileIDEj.exit.i.i, %23, %16
  %.sroa.02.0.copyload.i.i = load i32, ptr %6, align 8
  br label %_ZNK5clang13SourceManager9getFileIDENS_14SourceLocationE.exit

_ZNK5clang13SourceManager16isOffsetInFileIDENS_6FileIDEj.exit.thread4.i.i: ; preds = %_ZNK5clang13SourceManager16isOffsetInFileIDENS_6FileIDEj.exit.i.i, %23, %_ZNK5clang13SourceManager12getSLocEntryENS_6FileIDEPb.exit.i.i.i
  %31 = tail call i32 @_ZNK5clang13SourceManager13getFileIDSlowEj(ptr noundef nonnull align 8 dereferenceable(696) %4, i32 noundef %5) #10
  br label %_ZNK5clang13SourceManager9getFileIDENS_14SourceLocationE.exit

_ZNK5clang13SourceManager9getFileIDENS_14SourceLocationE.exit: ; preds = %_ZNK5clang13SourceManager16isOffsetInFileIDENS_6FileIDEj.exit.thread.i.i, %_ZNK5clang13SourceManager16isOffsetInFileIDENS_6FileIDEj.exit.thread4.i.i
  %.sroa.02.0.i.i = phi i32 [ %.sroa.02.0.copyload.i.i, %_ZNK5clang13SourceManager16isOffsetInFileIDENS_6FileIDEj.exit.thread.i.i ], [ %31, %_ZNK5clang13SourceManager16isOffsetInFileIDENS_6FileIDEj.exit.thread4.i.i ]
  %32 = tail call { ptr, i64 } @_ZNK5clang13SourceManager13getBufferDataENS_6FileIDEPb(ptr noundef nonnull align 8 dereferenceable(696) %4, i32 %.sroa.02.0.i.i, ptr noundef %1) #10
  ret { ptr, i64 } %32
}